target datalayout = "e-m:e-p270:32:32-p271:32:32-p272:64:64-i64:64-i128:128-f80:128-n8:16:32:64-S128"
target triple = "x86_64-pc-linux-gnu"

%struct.rb_data_type_struct = type { ptr, %struct.anon.12, ptr, ptr, i64 }
%struct.anon.12 = type { ptr, ptr, ptr, ptr, [1 x ptr] }
%struct.rb_process_status = type { i32, i32, i32 }

@rb_process_status_type = internal constant %struct.rb_data_type_struct { ptr @.str.172, %struct.anon.12 { ptr null, ptr inttoptr (i64 -1 to ptr), ptr null, ptr null, [1 x ptr] zeroinitializer }, ptr null, ptr null, i64 35 }, align 8

; Function Attrs: nounwind sspstrong uwtable
define internal i32 @pst_status(i64 noundef %0) #0 {
  %2 = alloca i64, align 8
  %3 = alloca ptr, align 8
  store i64 %0, ptr %2, align 8, !tbaa !35
  call void @llvm.lifetime.start.p0(i64 8, ptr %3) #27
  %4 = load i64, ptr %2, align 8, !tbaa !35
  %5 = call ptr @rb_check_typeddata(i64 noundef %4, ptr noundef @rb_process_status_type)
  store ptr %5, ptr %3, align 8, !tbaa !36
  %6 = load ptr, ptr %3, align 8, !tbaa !36
  %7 = getelementptr inbounds nuw %struct.rb_process_status, ptr %6, i32 0, i32 1
  %8 = load i32, ptr %7, align 4, !tbaa !40
  call void @llvm.lifetime.end.p0(i64 8, ptr %3) #27
  ret i32 %8
}

; Function Attrs: nounwind sspstrong uwtable
define internal i64 @pst_wifexited(i64 noundef %0) #0 {
  %2 = alloca i64, align 8
  %3 = alloca i32, align 4
  store i64 %0, ptr %2, align 8, !tbaa !35
  call void @llvm.lifetime.start.p0(i64 4, ptr %3) #27
  %4 = load i64, ptr %2, align 8, !tbaa !35
  %5 = call i32 @pst_status(i64 noundef %4)
  store i32 %5, ptr %3, align 4, !tbaa !34
  %6 = load i32, ptr %3, align 4, !tbaa !34
  %7 = and i32 %6, 127
  %8 = icmp eq i32 %7, 0
  %9 = select i1 %8, i64 20, i64 0
  call void @llvm.lifetime.end.p0(i64 4, ptr %3) #27
  ret i64 %9
}